target datalayout = "e-m:e-p270:32:32-p271:32:32-p272:64:64-i64:64-i128:128-f80:128-n8:16:32:64-S128"
target triple = "x86_64-pc-linux-gnu"

%struct.trav_path_op_data_t = type { ptr }

@.str.4 = private unnamed_addr constant [2 x i8] c"\0A\00", align 1
@.str.19 = private unnamed_addr constant [12 x i8] c" %-10s %s%s\00", align 1
@.str.20 = private unnamed_addr constant [10 x i8] c"attribute\00", align 1
@.str.21 = private unnamed_addr constant [13 x i8] c" %-10s %s/%s\00", align 1

; Function Attrs: nounwind uwtable
define internal i32 @trav_attr(i64 noundef %0, ptr noundef %1, ptr noundef %2, ptr noundef %3) #0 {
  %5 = alloca i64, align 8
  %6 = alloca ptr, align 8
  %7 = alloca ptr, align 8
  %8 = alloca ptr, align 8
  %9 = alloca ptr, align 8
  %10 = alloca ptr, align 8
  store i64 %0, ptr %5, align 8, !tbaa !21
  store ptr %1, ptr %6, align 8, !tbaa !10
  store ptr %2, ptr %7, align 8, !tbaa !36
  store ptr %3, ptr %8, align 8, !tbaa !36
  call void @llvm.lifetime.start.p0(i64 8, ptr %9) #10
  %11 = load ptr, ptr %8, align 8, !tbaa !36
  store ptr %11, ptr %9, align 8, !tbaa !119
  call void @llvm.lifetime.start.p0(i64 8, ptr %10) #10
  %12 = load ptr, ptr %9, align 8, !tbaa !119
  %13 = getelementptr inbounds nuw %struct.trav_path_op_data_t, ptr %12, i32 0, i32 0
  %14 = load ptr, ptr %13, align 8, !tbaa !105
  store ptr %14, ptr %10, align 8, !tbaa !10
  %15 = load ptr, ptr %10, align 8, !tbaa !10
  %16 = call i64 @strlen(ptr noundef %15) #12
  %17 = icmp eq i64 %16, 1
  br i1 %17, label %18, label %27

18:                                               ; preds = %4
  %19 = load ptr, ptr %10, align 8, !tbaa !10
  %20 = load i8, ptr %19, align 1, !tbaa !31
  %21 = sext i8 %20 to i32
  %22 = icmp eq i32 %21, 47
  br i1 %22, label %23, label %27

23:                                               ; preds = %18
  %24 = load ptr, ptr %10, align 8, !tbaa !10
  %25 = load ptr, ptr %6, align 8, !tbaa !10
  %26 = call i32 (ptr, ...) @printf(ptr noundef @.str.19, ptr noundef @.str.20, ptr noundef %24, ptr noundef %25)
  br label %31

27:                                               ; preds = %18, %4
  %28 = load ptr, ptr %10, align 8, !tbaa !10
  %29 = load ptr, ptr %6, align 8, !tbaa !10
  %30 = call i32 (ptr, ...) @printf(ptr noundef @.str.21, ptr noundef @.str.20, ptr noundef %28, ptr noundef %29)
  br label %31

31:                                               ; preds = %27, %23
  %32 = call i32 (ptr, ...) @printf(ptr noundef @.str.4)
  call void @llvm.lifetime.end.p0(i64 8, ptr %10) #10
  call void @llvm.lifetime.end.p0(i64 8, ptr %9) #10
  ret i32 0
}