; Function Attrs: nofree nounwind uwtable
define internal noundef i32 @trav_attr(i64 %0, ptr noundef %1, ptr readnone captures(none) %2, ptr noundef readonly captures(none) %3) #13 {
  %5 = load ptr, ptr %3, align 8, !tbaa !95
  %6 = tail call i64 @strlen(ptr noundef nonnull dereferenceable(1) %5) #20
  %7 = icmp eq i64 %6, 1
  br i1 %7, label %8, label %11

8:                                                ; preds = %4
  %9 = load i8, ptr %5, align 1, !tbaa !28
  %10 = icmp eq i8 %9, 47
  br i1 %10, label %12, label %11

11:                                               ; preds = %8, %4
  br label %12

12:                                               ; preds = %8, %11
  %.str.21.sink = phi ptr [ @.str.21, %11 ], [ @.str.19, %8 ]
  %13 = tail call i32 (ptr, ...) @printf(ptr noundef nonnull dereferenceable(1) %.str.21.sink, ptr noundef nonnull @.str.20, ptr noundef nonnull %5, ptr noundef %1)
  %putchar = tail call i32 @putchar(i32 10)
  ret i32 0
}